target datalayout = "e-m:e-p270:32:32-p271:32:32-p272:64:64-i64:64-i128:128-f80:128-n8:16:32:64-S128"
target triple = "x86_64-pc-linux-gnu"

%class.ErrorHandler = type <{ i32, i32, i8, i8, i8, i8, i8, i8, [2 x i8] }>
%class.File = type { ptr, i64, i8, i32, i8, i8, i32, i8, i8, i8, i8, i8, i64, i8, [2048 x i32], i32, ptr }

@ErrHandler = external global %class.ErrorHandler, align 4

; Function Attrs: mustprogress uwtable
define noundef i32 @_ZN4File10DirectReadEPvm(ptr noundef nonnull align 8 dereferenceable(8256) %0, ptr noundef %1, i64 noundef %2) #1 align 2 {
  %4 = alloca i32, align 4
  %5 = alloca ptr, align 8
  %6 = alloca ptr, align 8
  %7 = alloca i64, align 8
  %8 = alloca i64, align 8
  store ptr %0, ptr %5, align 8
  store ptr %1, ptr %6, align 8
  store i64 %2, ptr %7, align 8
  %9 = load ptr, ptr %5, align 8
  %10 = getelementptr inbounds %class.File, ptr %9, i32 0, i32 3
  %11 = load i32, ptr %10, align 4
  %12 = icmp eq i32 %11, 1
  br i1 %12, label %13, label %15

13:                                               ; preds = %3
  %14 = getelementptr inbounds %class.File, ptr %9, i32 0, i32 1
  store i64 0, ptr %14, align 8
  br label %15

15:                                               ; preds = %13, %3
  %16 = getelementptr inbounds %class.File, ptr %9, i32 0, i32 1
  %17 = load i64, ptr %16, align 8
  %18 = trunc i64 %17 to i32
  %19 = load ptr, ptr %6, align 8
  %20 = load i64, ptr %7, align 8
  %21 = call i64 @read(i32 noundef %18, ptr noundef %19, i64 noundef %20)
  store i64 %21, ptr %8, align 8
  %22 = load i64, ptr %8, align 8
  %23 = icmp eq i64 %22, -1
  br i1 %23, label %24, label %25

24:                                               ; preds = %15
  store i32 -1, ptr %4, align 4
  br label %28

25:                                               ; preds = %15
  %26 = load i64, ptr %8, align 8
  %27 = trunc i64 %26 to i32
  store i32 %27, ptr %4, align 4
  br label %28

28:                                               ; preds = %25, %24
  %29 = load i32, ptr %4, align 4
  ret i32 %29
}

; Function Attrs: mustprogress uwtable
define noundef i32 @_ZN4File4ReadEPvm(ptr noundef nonnull align 8 dereferenceable(8256) %0, ptr noundef %1, i64 noundef %2) unnamed_addr #1 align 2 {
  %4 = alloca i32, align 4
  %5 = alloca ptr, align 8
  %6 = alloca ptr, align 8
  %7 = alloca i64, align 8
  %8 = alloca i64, align 8
  %9 = alloca i32, align 4
  %10 = alloca i32, align 4
  %11 = alloca i64, align 8
  %12 = alloca i64, align 8
  %13 = alloca i32, align 4
  %14 = alloca i8, align 1
  %15 = alloca i8, align 1
  %16 = alloca i8, align 1
  store ptr %0, ptr %5, align 8
  store ptr %1, ptr %6, align 8
  store i64 %2, ptr %7, align 8
  %17 = load ptr, ptr %5, align 8
  %18 = getelementptr inbounds %class.File, ptr %17, i32 0, i32 11
  %19 = load i8, ptr %18, align 4
  %20 = trunc i8 %19 to i1
  br i1 %20, label %21, label %22

21:                                               ; preds = %3
  store i32 0, ptr %4, align 4
  br label %162

22:                                               ; preds = %3
  store i64 0, ptr %8, align 8
  %23 = getelementptr inbounds %class.File, ptr %17, i32 0, i32 6
  %24 = load i32, ptr %23, align 4
  %25 = icmp eq i32 %24, 2
  br i1 %25, label %26, label %31

26:                                               ; preds = %22
  %27 = load ptr, ptr %17, align 8
  %28 = getelementptr inbounds ptr, ptr %27, i64 6
  %29 = load ptr, ptr %28, align 8
  %30 = call noundef i64 %29(ptr noundef nonnull align 8 dereferenceable(8256) %17)
  store i64 %30, ptr %8, align 8
  br label %31

31:                                               ; preds = %26, %22
  store i32 0, ptr %9, align 4
  br label %32

32:                                               ; preds = %141, %106, %31
  %33 = load ptr, ptr %6, align 8
  %34 = load i64, ptr %7, align 8
  %35 = call noundef i32 @_ZN4File10DirectReadEPvm(ptr noundef nonnull align 8 dereferenceable(8256) %17, ptr noundef %33, i64 noundef %34)
  store i32 %35, ptr %10, align 4
  %36 = load i32, ptr %10, align 4
  %37 = icmp eq i32 %36, -1
  br i1 %37, label %38, label %122

38:                                               ; preds = %32
  %39 = getelementptr inbounds %class.File, ptr %17, i32 0, i32 15
  store i32 2, ptr %39, align 4
  %40 = getelementptr inbounds %class.File, ptr %17, i32 0, i32 9
  %41 = load i8, ptr %40, align 2
  %42 = trunc i8 %41 to i1
  br i1 %42, label %43, label %121

43:                                               ; preds = %38
  %44 = getelementptr inbounds %class.File, ptr %17, i32 0, i32 6
  %45 = load i32, ptr %44, align 4
  %46 = icmp eq i32 %45, 2
  br i1 %46, label %47, label %93

47:                                               ; preds = %43
  store i32 0, ptr %10, align 4
  store i64 0, ptr %11, align 8
  br label %48

48:                                               ; preds = %89, %47
  %49 = load i64, ptr %11, align 8
  %50 = load i64, ptr %7, align 8
  %51 = icmp ult i64 %49, %50
  br i1 %51, label %52, label %92

52:                                               ; preds = %48
  %53 = load i64, ptr %8, align 8
  %54 = load i64, ptr %11, align 8
  %55 = add i64 %53, %54
  %56 = load ptr, ptr %17, align 8
  %57 = getelementptr inbounds ptr, ptr %56, i64 5
  %58 = load ptr, ptr %57, align 8
  call void %58(ptr noundef nonnull align 8 dereferenceable(8256) %17, i64 noundef %55, i32 noundef 0)
  %59 = load i64, ptr %7, align 8
  %60 = load i64, ptr %11, align 8
  %61 = sub i64 %59, %60
  %62 = icmp ult i64 %61, 512
  br i1 %62, label %63, label %67

63:                                               ; preds = %52
  %64 = load i64, ptr %7, align 8
  %65 = load i64, ptr %11, align 8
  %66 = sub i64 %64, %65
  br label %68

67:                                               ; preds = %52
  br label %68

68:                                               ; preds = %67, %63
  %69 = phi i64 [ %66, %63 ], [ 512, %67 ]
  store i64 %69, ptr %12, align 8
  %70 = load ptr, ptr %6, align 8
  %71 = load i64, ptr %12, align 8
  %72 = call noundef i32 @_ZN4File10DirectReadEPvm(ptr noundef nonnull align 8 dereferenceable(8256) %17, ptr noundef %70, i64 noundef %71)
  store i32 %72, ptr %13, align 4
  %73 = load i32, ptr %13, align 4
  %74 = icmp eq i32 %73, -1
  br i1 %74, label %75, label %76

75:                                               ; preds = %68
  br label %78

76:                                               ; preds = %68
  %77 = load i32, ptr %13, align 4
  br label %78

78:                                               ; preds = %76, %75
  %79 = phi i32 [ 512, %75 ], [ %77, %76 ]
  %80 = load i32, ptr %10, align 4
  %81 = add nsw i32 %80, %79
  store i32 %81, ptr %10, align 4
  %82 = load i32, ptr %10, align 4
  %83 = icmp ne i32 %82, -1
  br i1 %83, label %84, label %88

84:                                               ; preds = %78
  %85 = load i32, ptr %10, align 4
  %86 = load i32, ptr %9, align 4
  %87 = add nsw i32 %86, %85
  store i32 %87, ptr %9, align 4
  br label %88

88:                                               ; preds = %84, %78
  br label %89

89:                                               ; preds = %88
  %90 = load i64, ptr %11, align 8
  %91 = add i64 %90, 512
  store i64 %91, ptr %11, align 8
  br label %48, !llvm.loop !6

92:                                               ; preds = %48
  br label %120

93:                                               ; preds = %43
  store i8 0, ptr %14, align 1
  store i8 0, ptr %15, align 1
  store i8 0, ptr %16, align 1
  %94 = getelementptr inbounds %class.File, ptr %17, i32 0, i32 6
  %95 = load i32, ptr %94, align 4
  %96 = icmp eq i32 %95, 0
  br i1 %96, label %97, label %108

97:                                               ; preds = %93
  %98 = getelementptr inbounds %class.File, ptr %17, i32 0, i32 3
  %99 = load i32, ptr %98, align 4
  %100 = icmp eq i32 %99, 0
  br i1 %100, label %101, label %108

101:                                              ; preds = %97
  %102 = getelementptr inbounds %class.File, ptr %17, i32 0, i32 14
  %103 = getelementptr inbounds [2048 x i32], ptr %102, i64 0, i64 0
  call void @_ZN12ErrorHandler13AskRepeatReadEPKwRbS2_S2_(ptr noundef nonnull align 4 dereferenceable(14) @ErrHandler, ptr noundef %103, ptr noundef nonnull align 1 dereferenceable(1) %14, ptr noundef nonnull align 1 dereferenceable(1) %15, ptr noundef nonnull align 1 dereferenceable(1) %16)
  %104 = load i8, ptr %15, align 1
  %105 = trunc i8 %104 to i1
  br i1 %105, label %106, label %107

106:                                              ; preds = %101
  br label %32, !llvm.loop !7

107:                                              ; preds = %101
  br label %108

108:                                              ; preds = %107, %97, %93
  %109 = load i8, ptr %14, align 1
  %110 = trunc i8 %109 to i1
  br i1 %110, label %115, label %111

111:                                              ; preds = %108
  %112 = getelementptr inbounds %class.File, ptr %17, i32 0, i32 6
  %113 = load i32, ptr %112, align 4
  %114 = icmp eq i32 %113, 1
  br i1 %114, label %115, label %117

115:                                              ; preds = %111, %108
  %116 = getelementptr inbounds %class.File, ptr %17, i32 0, i32 11
  store i8 1, ptr %116, align 4
  store i32 0, ptr %4, align 4
  br label %162

117:                                              ; preds = %111
  %118 = getelementptr inbounds %class.File, ptr %17, i32 0, i32 14
  %119 = getelementptr inbounds [2048 x i32], ptr %118, i64 0, i64 0
  call void @_ZN12ErrorHandler9ReadErrorEPKw(ptr noundef nonnull align 4 dereferenceable(14) @ErrHandler, ptr noundef %119)
  br label %120

120:                                              ; preds = %117, %92
  br label %121

121:                                              ; preds = %120, %38
  br label %122

122:                                              ; preds = %121, %32
  %123 = load i32, ptr %10, align 4
  %124 = load i32, ptr %9, align 4
  %125 = add nsw i32 %124, %123
  store i32 %125, ptr %9, align 4
  %126 = getelementptr inbounds %class.File, ptr %17, i32 0, i32 3
  %127 = load i32, ptr %126, align 4
  %128 = icmp eq i32 %127, 1
  br i1 %128, label %129, label %150

129:                                              ; preds = %122
  %130 = getelementptr inbounds %class.File, ptr %17, i32 0, i32 4
  %131 = load i8, ptr %130, align 8
  %132 = trunc i8 %131 to i1
  br i1 %132, label %150, label %133

133:                                              ; preds = %129
  %134 = load i32, ptr %10, align 4
  %135 = icmp sgt i32 %134, 0
  br i1 %135, label %136, label %150

136:                                              ; preds = %133
  %137 = load i32, ptr %10, align 4
  %138 = zext i32 %137 to i64
  %139 = load i64, ptr %7, align 8
  %140 = icmp ult i64 %138, %139
  br i1 %140, label %141, label %150

141:                                              ; preds = %136
  %142 = load ptr, ptr %6, align 8
  %143 = load i32, ptr %10, align 4
  %144 = sext i32 %143 to i64
  %145 = getelementptr inbounds i8, ptr %142, i64 %144
  store ptr %145, ptr %6, align 8
  %146 = load i32, ptr %10, align 4
  %147 = sext i32 %146 to i64
  %148 = load i64, ptr %7, align 8
  %149 = sub i64 %148, %147
  store i64 %149, ptr %7, align 8
  br label %32, !llvm.loop !7

150:                                              ; preds = %136, %133, %129, %122
  br label %151

151:                                              ; preds = %150
  %152 = load i32, ptr %9, align 4
  %153 = icmp sgt i32 %152, 0
  br i1 %153, label %154, label %160

154:                                              ; preds = %151
  %155 = load i32, ptr %9, align 4
  %156 = sext i32 %155 to i64
  %157 = getelementptr inbounds %class.File, ptr %17, i32 0, i32 12
  %158 = load i64, ptr %157, align 8
  %159 = add nsw i64 %158, %156
  store i64 %159, ptr %157, align 8
  br label %160

160:                                              ; preds = %154, %151
  %161 = load i32, ptr %9, align 4
  store i32 %161, ptr %4, align 4
  br label %162

162:                                              ; preds = %160, %115, %21
  %163 = load i32, ptr %4, align 4
  ret i32 %163
}