; Function Attrs: mustprogress uwtable
define noundef i32 @_ZN4File4ReadEPvm(ptr noundef nonnull align 8 dereferenceable(8256) %0, ptr nocapture noundef %1, i64 noundef %2) unnamed_addr #2 align 2 {
  %4 = alloca i8, align 1
  %5 = alloca i8, align 1
  %6 = alloca i8, align 1
  %7 = getelementptr inbounds i8, ptr %0, i64 36
  %8 = load i8, ptr %7, align 4
  %9 = trunc i8 %8 to i1
  br i1 %9, label %92, label %10

10:                                               ; preds = %3
  %11 = getelementptr inbounds i8, ptr %0, i64 28
  %12 = load i32, ptr %11, align 4
  %13 = icmp eq i32 %12, 2
  br i1 %13, label %14, label %19

14:                                               ; preds = %10
  %15 = load ptr, ptr %0, align 8
  %16 = getelementptr inbounds i8, ptr %15, i64 48
  %17 = load ptr, ptr %16, align 8
  %18 = tail call noundef i64 %17(ptr noundef nonnull align 8 dereferenceable(8256) %0)
  br label %19

19:                                               ; preds = %14, %10
  %.039 = phi i64 [ %18, %14 ], [ 0, %10 ]
  %20 = getelementptr inbounds i8, ptr %0, i64 20
  %21 = getelementptr inbounds i8, ptr %0, i64 8
  %22 = getelementptr inbounds i8, ptr %0, i64 8244
  %23 = getelementptr inbounds i8, ptr %0, i64 34
  %24 = getelementptr inbounds i8, ptr %0, i64 52
  %25 = getelementptr inbounds i8, ptr %0, i64 24
  br label %.outer

.outer:                                           ; preds = %82, %19
  %.040.ph = phi i64 [ %84, %82 ], [ %2, %19 ]
  %.037.ph = phi i32 [ %73, %82 ], [ 0, %19 ]
  %.034.ph = phi ptr [ %83, %82 ], [ %1, %19 ]
  br label %26

26:                                               ; preds = %.outer, %64
  %27 = load i32, ptr %20, align 4
  %28 = icmp eq i32 %27, 1
  br i1 %28, label %30, label %._crit_edge.i

._crit_edge.i:                                    ; preds = %26
  %.pre.i = load i64, ptr %21, align 8
  %29 = trunc i64 %.pre.i to i32
  br label %_ZN4File10DirectReadEPvm.exit

30:                                               ; preds = %26
  store i64 0, ptr %21, align 8
  br label %_ZN4File10DirectReadEPvm.exit

_ZN4File10DirectReadEPvm.exit:                    ; preds = %._crit_edge.i, %30
  %31 = phi i32 [ %29, %._crit_edge.i ], [ 0, %30 ]
  %32 = call i64 @read(i32 noundef %31, ptr noundef %.034.ph, i64 noundef %.040.ph)
  %33 = trunc i64 %32 to i32
  %34 = icmp eq i32 %33, -1
  br i1 %34, label %35, label %.loopexit

35:                                               ; preds = %_ZN4File10DirectReadEPvm.exit
  store i32 2, ptr %22, align 4
  %36 = load i8, ptr %23, align 2
  %37 = trunc i8 %36 to i1
  br i1 %37, label %38, label %.loopexit

38:                                               ; preds = %35
  %39 = load i32, ptr %11, align 4
  %40 = icmp eq i32 %39, 2
  br i1 %40, label %.preheader, label %60

.preheader:                                       ; preds = %38
  %.not66 = icmp eq i64 %.040.ph, 0
  br i1 %.not66, label %.loopexit, label %.lr.ph

.lr.ph:                                           ; preds = %.preheader, %_ZN4File10DirectReadEPvm.exit54
  %.03564 = phi i64 [ %58, %_ZN4File10DirectReadEPvm.exit54 ], [ 0, %.preheader ]
  %.03663 = phi i32 [ %56, %_ZN4File10DirectReadEPvm.exit54 ], [ 0, %.preheader ]
  %.13862 = phi i32 [ %spec.select, %_ZN4File10DirectReadEPvm.exit54 ], [ %.037.ph, %.preheader ]
  %41 = add i64 %.03564, %.039
  %42 = load ptr, ptr %0, align 8
  %43 = getelementptr inbounds i8, ptr %42, i64 40
  %44 = load ptr, ptr %43, align 8
  call void %44(ptr noundef nonnull align 8 dereferenceable(8256) %0, i64 noundef %41, i32 noundef 0)
  %45 = sub i64 %.040.ph, %.03564
  %46 = call i64 @llvm.umin.i64(i64 %45, i64 512)
  %47 = load i32, ptr %20, align 4
  %48 = icmp eq i32 %47, 1
  br i1 %48, label %50, label %._crit_edge.i52

._crit_edge.i52:                                  ; preds = %.lr.ph
  %.pre.i53 = load i64, ptr %21, align 8
  %49 = trunc i64 %.pre.i53 to i32
  br label %_ZN4File10DirectReadEPvm.exit54

50:                                               ; preds = %.lr.ph
  store i64 0, ptr %21, align 8
  br label %_ZN4File10DirectReadEPvm.exit54

_ZN4File10DirectReadEPvm.exit54:                  ; preds = %._crit_edge.i52, %50
  %51 = phi i32 [ %49, %._crit_edge.i52 ], [ 0, %50 ]
  %52 = call i64 @read(i32 noundef %51, ptr noundef %.034.ph, i64 noundef %46)
  %53 = trunc i64 %52 to i32
  %54 = icmp eq i32 %53, -1
  %55 = select i1 %54, i32 512, i32 %53
  %56 = add nsw i32 %55, %.03663
  %.not = icmp eq i32 %56, -1
  %57 = select i1 %.not, i32 0, i32 %56
  %spec.select = add nsw i32 %57, %.13862
  %58 = add i64 %.03564, 512
  %59 = icmp ult i64 %58, %.040.ph
  br i1 %59, label %.lr.ph, label %.loopexit, !llvm.loop !6

60:                                               ; preds = %38
  store i8 0, ptr %4, align 1
  store i8 0, ptr %5, align 1
  store i8 0, ptr %6, align 1
  %61 = icmp eq i32 %39, 0
  %62 = load i32, ptr %20, align 4
  %63 = icmp eq i32 %62, 0
  %or.cond = select i1 %61, i1 %63, i1 false
  br i1 %or.cond, label %64, label %split

64:                                               ; preds = %60
  call void @_ZN12ErrorHandler13AskRepeatReadEPKwRbS2_S2_(ptr noundef nonnull align 4 dereferenceable(14) @ErrHandler, ptr noundef nonnull %24, ptr noundef nonnull align 1 dereferenceable(1) %4, ptr noundef nonnull align 1 dereferenceable(1) %5, ptr noundef nonnull align 1 dereferenceable(1) %6)
  %65 = load i8, ptr %5, align 1
  %66 = trunc i8 %65 to i1
  br i1 %66, label %26, label %._crit_edge, !llvm.loop !7

._crit_edge:                                      ; preds = %64
  %.pre = load i8, ptr %4, align 1
  %.pre69 = load i32, ptr %11, align 4
  br label %split

split:                                            ; preds = %60, %._crit_edge
  %67 = phi i32 [ %.pre69, %._crit_edge ], [ %39, %60 ]
  %68 = phi i8 [ %.pre, %._crit_edge ], [ 0, %60 ]
  %69 = trunc i8 %68 to i1
  %70 = icmp eq i32 %67, 1
  %or.cond49 = select i1 %69, i1 true, i1 %70
  br i1 %or.cond49, label %71, label %72

71:                                               ; preds = %split
  store i8 1, ptr %7, align 4
  br label %92

72:                                               ; preds = %split
  call void @_ZN12ErrorHandler9ReadErrorEPKw(ptr noundef nonnull align 4 dereferenceable(14) @ErrHandler, ptr noundef nonnull %24)
  br label %.loopexit

.loopexit:                                        ; preds = %35, %_ZN4File10DirectReadEPvm.exit, %_ZN4File10DirectReadEPvm.exit54, %.preheader, %72
  %.3 = phi i32 [ %.037.ph, %72 ], [ %.037.ph, %.preheader ], [ %spec.select, %_ZN4File10DirectReadEPvm.exit54 ], [ %.037.ph, %_ZN4File10DirectReadEPvm.exit ], [ %.037.ph, %35 ]
  %.1 = phi i32 [ -1, %72 ], [ 0, %.preheader ], [ %56, %_ZN4File10DirectReadEPvm.exit54 ], [ -1, %35 ], [ %33, %_ZN4File10DirectReadEPvm.exit ]
  %73 = add nsw i32 %.1, %.3
  %74 = load i32, ptr %20, align 4
  %75 = icmp eq i32 %74, 1
  br i1 %75, label %76, label %85

76:                                               ; preds = %.loopexit
  %77 = load i8, ptr %25, align 8
  %78 = trunc i8 %77 to i1
  %79 = icmp slt i32 %.1, 1
  %or.cond.not = or i1 %79, %78
  %80 = zext nneg i32 %.1 to i64
  %81 = icmp ule i64 %.040.ph, %80
  %or.cond51.not = select i1 %or.cond.not, i1 true, i1 %81
  br i1 %or.cond51.not, label %85, label %82

82:                                               ; preds = %76
  %83 = getelementptr inbounds i8, ptr %.034.ph, i64 %80
  %84 = sub i64 %.040.ph, %80
  br label %.outer, !llvm.loop !7

85:                                               ; preds = %.loopexit, %76
  %86 = icmp sgt i32 %73, 0
  br i1 %86, label %87, label %92

87:                                               ; preds = %85
  %88 = zext nneg i32 %73 to i64
  %89 = getelementptr inbounds i8, ptr %0, i64 40
  %90 = load i64, ptr %89, align 8
  %91 = add nsw i64 %90, %88
  store i64 %91, ptr %89, align 8
  br label %92

92:                                               ; preds = %85, %87, %3, %71
  %.0 = phi i32 [ 0, %71 ], [ 0, %3 ], [ %73, %87 ], [ %73, %85 ]
  ret i32 %.0
}